target datalayout = "e-m:e-p270:32:32-p271:32:32-p272:64:64-i64:64-i128:128-f80:128-n8:16:32:64-S128"
target triple = "x86_64-pc-linux-gnu"

%struct.pkcs12_enc = type { i32, ptr, i32 }

@passwords = internal global [2 x ptr] [ptr @.str.47, ptr @.str.77], align 16

; Function Attrs: nounwind uwtable
define internal i32 @test_single_cert_mac_pass(i32 noundef %0) #0 {
  %2 = alloca i32, align 4
  %3 = alloca %struct.pkcs12_enc, align 8
  store i32 %0, ptr %2, align 4, !tbaa !4
  call void @llvm.lifetime.start.p0(i64 24, ptr %3) #4
  %4 = getelementptr inbounds nuw %struct.pkcs12_enc, ptr %3, i32 0, i32 0
  store i32 64, ptr %4, align 8, !tbaa !17
  %5 = load i32, ptr %2, align 4, !tbaa !4
  %6 = sext i32 %5 to i64
  %7 = getelementptr inbounds [2 x ptr], ptr @passwords, i64 0, i64 %6
  %8 = load ptr, ptr %7, align 8, !tbaa !26
  %9 = getelementptr inbounds nuw %struct.pkcs12_enc, ptr %3, i32 0, i32 1
  store ptr %8, ptr %9, align 8, !tbaa !20
  %10 = getelementptr inbounds nuw %struct.pkcs12_enc, ptr %3, i32 0, i32 2
  store i32 1000, ptr %10, align 8, !tbaa !21
  %11 = call i32 @test_single_cert_mac(ptr noundef %3)
  call void @llvm.lifetime.end.p0(i64 24, ptr %3) #4
  ret i32 %11
}